; Function Attrs: mustprogress nounwind uwtable
define dso_local void @_ZN4node7tracing15NodeTraceWriter16AppendTraceEventEPN2v88platform7tracing11TraceObjectE(ptr noundef nonnull align 8 dereferenceable(1409) %this, ptr noundef %trace_event) unnamed_addr #0 align 2 {
entry:
  %stream_mutex_ = getelementptr inbounds i8, ptr %this, i64 272
  tail call void @uv_mutex_lock(ptr noundef nonnull %stream_mutex_) #12
  %total_traces_ = getelementptr inbounds i8, ptr %this, i64 984
  %0 = load i32, ptr %total_traces_, align 8
  %cmp = icmp eq i32 %0, 0
  br i1 %cmp, label %if.then, label %if.end

if.then:                                          ; preds = %entry
  tail call void @_ZN4node7tracing15NodeTraceWriter23OpenNewFileForStreamingEv(ptr noundef nonnull align 8 dereferenceable(1409) %this)
  %json_trace_writer_ = getelementptr inbounds i8, ptr %this, i64 1400
  %stream_ = getelementptr inbounds i8, ptr %this, i64 1024
  %call = tail call noundef ptr @_ZN2v88platform7tracing11TraceWriter21CreateJSONTraceWriterERSo(ptr noundef nonnull align 8 dereferenceable(8) %stream_) #12
  %1 = load ptr, ptr %json_trace_writer_, align 8
  store ptr %call, ptr %json_trace_writer_, align 8
  %tobool.not.i.i = icmp eq ptr %1, null
  br i1 %tobool.not.i.i, label %if.end, label %_ZNKSt14default_deleteIN2v88platform7tracing11TraceWriterEEclEPS3_.exit.i.i

_ZNKSt14default_deleteIN2v88platform7tracing11TraceWriterEEclEPS3_.exit.i.i: ; preds = %if.then
  %vtable.i.i.i = load ptr, ptr %1, align 8
  %vfn.i.i.i = getelementptr inbounds i8, ptr %vtable.i.i.i, i64 8
  %2 = load ptr, ptr %vfn.i.i.i, align 8
  tail call void %2(ptr noundef nonnull align 8 dereferenceable(8) %1) #12
  br label %if.end

if.end:                                           ; preds = %_ZNKSt14default_deleteIN2v88platform7tracing11TraceWriterEEclEPS3_.exit.i.i, %if.then, %entry
  %3 = load i32, ptr %total_traces_, align 8
  %inc = add nsw i32 %3, 1
  store i32 %inc, ptr %total_traces_, align 8
  %json_trace_writer_3 = getelementptr inbounds i8, ptr %this, i64 1400
  %4 = load ptr, ptr %json_trace_writer_3, align 8
  %vtable = load ptr, ptr %4, align 8
  %vfn = getelementptr inbounds i8, ptr %vtable, i64 16
  %5 = load ptr, ptr %vfn, align 8
  tail call void %5(ptr noundef nonnull align 8 dereferenceable(8) %4, ptr noundef %trace_event) #12
  tail call void @uv_mutex_unlock(ptr noundef nonnull %stream_mutex_) #12
  ret void
}